target datalayout = "e-m:e-p270:32:32-p271:32:32-p272:64:64-i64:64-i128:128-f80:128-n8:16:32:64-S128"
target triple = "x86_64-pc-linux-gnu"

@.str.108 = private unnamed_addr constant [6 x i8] c"  %s\0A\00", align 1
@.str.109 = private unnamed_addr constant [12 x i8] c"<undefined>\00", align 1
@.str.110 = private unnamed_addr constant [12 x i8] c"  %s => %s\0A\00", align 1

; Function Attrs: nounwind uwtable
define internal void @legacy_md_fn(ptr noundef %0, ptr noundef %1, ptr noundef %2, ptr noundef %3) #0 {
  %5 = alloca ptr, align 8
  %6 = alloca ptr, align 8
  %7 = alloca ptr, align 8
  %8 = alloca ptr, align 8
  store ptr %0, ptr %5, align 8, !tbaa !37
  store ptr %1, ptr %6, align 8, !tbaa !11
  store ptr %2, ptr %7, align 8, !tbaa !11
  store ptr %3, ptr %8, align 8, !tbaa !123
  %9 = load ptr, ptr %5, align 8, !tbaa !37
  %10 = icmp ne ptr %9, null
  br i1 %10, label %11, label %16

11:                                               ; preds = %4
  %12 = load ptr, ptr %8, align 8, !tbaa !123
  %13 = load ptr, ptr %5, align 8, !tbaa !37
  %14 = call ptr @EVP_MD_get0_name(ptr noundef %13)
  %15 = call i32 (ptr, ptr, ...) @BIO_printf(ptr noundef %12, ptr noundef @.str.108, ptr noundef %14)
  br label %29

16:                                               ; preds = %4
  %17 = load ptr, ptr %6, align 8, !tbaa !11
  %18 = icmp eq ptr %17, null
  br i1 %18, label %19, label %20

19:                                               ; preds = %16
  store ptr @.str.109, ptr %6, align 8, !tbaa !11
  br label %20

20:                                               ; preds = %19, %16
  %21 = load ptr, ptr %7, align 8, !tbaa !11
  %22 = icmp eq ptr %21, null
  br i1 %22, label %23, label %24

23:                                               ; preds = %20
  store ptr @.str.109, ptr %7, align 8, !tbaa !11
  br label %24

24:                                               ; preds = %23, %20
  %25 = load ptr, ptr %8, align 8, !tbaa !123
  %26 = load ptr, ptr %6, align 8, !tbaa !11
  %27 = load ptr, ptr %7, align 8, !tbaa !11
  %28 = call i32 (ptr, ptr, ...) @BIO_printf(ptr noundef %25, ptr noundef @.str.110, ptr noundef %26, ptr noundef %27)
  br label %29

29:                                               ; preds = %24, %11
  ret void
}