; Function Attrs: nounwind uwtable
define internal void @legacy_md_fn(ptr noundef %0, ptr noundef %1, ptr noundef %2, ptr noundef %3) #0 {
  %.not = icmp eq ptr %0, null
  br i1 %.not, label %8, label %5

5:                                                ; preds = %4
  %6 = tail call ptr @EVP_MD_get0_name(ptr noundef nonnull %0) #6
  %7 = tail call i32 (ptr, ptr, ...) @BIO_printf(ptr noundef %3, ptr noundef nonnull @.str.108, ptr noundef %6) #6
  br label %12

8:                                                ; preds = %4
  %9 = icmp eq ptr %1, null
  %spec.store.select = select i1 %9, ptr @.str.109, ptr %1
  %10 = icmp eq ptr %2, null
  %spec.store.select1 = select i1 %10, ptr @.str.109, ptr %2
  %11 = tail call i32 (ptr, ptr, ...) @BIO_printf(ptr noundef %3, ptr noundef nonnull @.str.110, ptr noundef nonnull %spec.store.select, ptr noundef nonnull %spec.store.select1) #6
  br label %12

12:                                               ; preds = %8, %5
  ret void
}